; Function Attrs: nounwind uwtable
define internal noundef i32 @run_alf(ptr readnone captures(none) %0, ptr noundef %1, ptr noundef readonly captures(none) %2) #0 {
  %4 = getelementptr inbounds nuw i8, ptr %1, i64 4580552
  %5 = load ptr, ptr %4, align 8, !tbaa !60
  %6 = getelementptr inbounds nuw i8, ptr %2, i64 24
  %7 = getelementptr inbounds nuw i8, ptr %5, i64 1928
  %8 = load ptr, ptr %7, align 8, !tbaa !87
  %9 = load ptr, ptr %8, align 8, !tbaa !142
  %10 = getelementptr inbounds nuw i8, ptr %9, i64 16176
  %11 = load i8, ptr %10, align 8, !tbaa !186
  %.not = icmp eq i8 %11, 0
  br i1 %.not, label %24, label %12

12:                                               ; preds = %3
  %13 = load i32, ptr %6, align 8, !tbaa !83
  %14 = getelementptr inbounds nuw i8, ptr %5, i64 21288
  %15 = load ptr, ptr %14, align 8, !tbaa !23
  %16 = getelementptr inbounds nuw i8, ptr %15, i64 24
  %17 = load i32, ptr %16, align 8, !tbaa !97
  %18 = mul nsw i32 %17, %13
  %19 = getelementptr inbounds nuw i8, ptr %2, i64 20
  %20 = load i32, ptr %19, align 4, !tbaa !82
  %21 = mul nsw i32 %20, %17
  %22 = getelementptr inbounds nuw i8, ptr %2, i64 28
  %23 = load i32, ptr %22, align 4, !tbaa !111
  tail call void @ff_vvc_decode_neighbour(ptr noundef nonnull %1, i32 noundef %21, i32 noundef %18, i32 noundef %20, i32 noundef %13, i32 noundef %23) #7
  tail call void @ff_vvc_alf_filter(ptr noundef nonnull %1, i32 noundef %21, i32 noundef %18) #7
  br label %24

24:                                               ; preds = %12, %3
  %25 = load i32, ptr %6, align 8, !tbaa !83
  tail call fastcc void @report_frame_progress(ptr noundef nonnull %5, i32 noundef %25, i32 noundef 1)
  ret i32 0
}